target datalayout = "e-m:e-p270:32:32-p271:32:32-p272:64:64-i64:64-i128:128-f80:128-n8:16:32:64-S128"
target triple = "x86_64-pc-linux-gnu"

%struct.Fra_Cla_t_ = type { ptr, ptr, ptr, ptr, ptr, ptr, ptr, ptr, ptr, i32, i32, ptr, ptr, ptr, ptr }
%struct.Aig_Man_t_ = type { ptr, ptr, ptr, ptr, ptr, ptr, ptr, %struct.Aig_Obj_t_, i32, i32, i32, i32, i32, i32, [7 x i32], i32, ptr, i32, ptr, i32, ptr, i32, i32, i32, ptr, i32, i32, i32, i32, i32, ptr, ptr, i32, ptr, ptr, i32, ptr, ptr, i32, i32, i32, ptr, ptr, ptr, ptr, ptr, ptr, ptr, ptr, ptr, ptr, ptr, ptr, ptr, ptr, i32, ptr, ptr, ptr, ptr, i32, i64, i64, i64, ptr, ptr }
%struct.Aig_Obj_t_ = type { %union.anon, ptr, ptr, i64, i32, i32, %union.anon.0 }
%union.anon = type { ptr }
%union.anon.0 = type { ptr }
%struct.Vec_Ptr_t_ = type { i32, i32, ptr }
%struct.Fra_Man_t_ = type { ptr, ptr, ptr, i32, ptr, i32, ptr, ptr, ptr, i32, ptr, ptr, ptr, ptr, i32, ptr, i64, i64, ptr, ptr, i32, ptr, i32, i32, i32, i32, i32, i32, i32, i32, i32, i32, i32, i32, i32, i32, i32, i32, i32, i32, i32, i64, i64, i64, i64, i64, i64, i64, i64, i64, i64, i64 }

; Function Attrs: inlinehint nounwind uwtable
define internal void @Vec_PtrGrow(ptr noundef %0, i32 noundef %1) #4 {
  %3 = alloca ptr, align 8
  %4 = alloca i32, align 4
  store ptr %0, ptr %3, align 8, !tbaa !36
  store i32 %1, ptr %4, align 4, !tbaa !35
  %5 = load ptr, ptr %3, align 8, !tbaa !36
  %6 = getelementptr inbounds nuw %struct.Vec_Ptr_t_, ptr %5, i32 0, i32 0
  %7 = load i32, ptr %6, align 8, !tbaa !39
  %8 = load i32, ptr %4, align 4, !tbaa !35
  %9 = icmp sge i32 %7, %8
  br i1 %9, label %10, label %11

10:                                               ; preds = %2
  br label %36

11:                                               ; preds = %2
  %12 = load ptr, ptr %3, align 8, !tbaa !36
  %13 = getelementptr inbounds nuw %struct.Vec_Ptr_t_, ptr %12, i32 0, i32 2
  %14 = load ptr, ptr %13, align 8, !tbaa !40
  %15 = icmp ne ptr %14, null
  br i1 %15, label %16, label %24

16:                                               ; preds = %11
  %17 = load ptr, ptr %3, align 8, !tbaa !36
  %18 = getelementptr inbounds nuw %struct.Vec_Ptr_t_, ptr %17, i32 0, i32 2
  %19 = load ptr, ptr %18, align 8, !tbaa !40
  %20 = load i32, ptr %4, align 4, !tbaa !35
  %21 = sext i32 %20 to i64
  %22 = mul i64 8, %21
  %23 = call ptr @realloc(ptr noundef %19, i64 noundef %22) #13
  br label %29

24:                                               ; preds = %11
  %25 = load i32, ptr %4, align 4, !tbaa !35
  %26 = sext i32 %25 to i64
  %27 = mul i64 8, %26
  %28 = call noalias ptr @malloc(i64 noundef %27) #11
  br label %29

29:                                               ; preds = %24, %16
  %30 = phi ptr [ %23, %16 ], [ %28, %24 ]
  %31 = load ptr, ptr %3, align 8, !tbaa !36
  %32 = getelementptr inbounds nuw %struct.Vec_Ptr_t_, ptr %31, i32 0, i32 2
  store ptr %30, ptr %32, align 8, !tbaa !40
  %33 = load i32, ptr %4, align 4, !tbaa !35
  %34 = load ptr, ptr %3, align 8, !tbaa !36
  %35 = getelementptr inbounds nuw %struct.Vec_Ptr_t_, ptr %34, i32 0, i32 0
  store i32 %33, ptr %35, align 8, !tbaa !39
  br label %36

36:                                               ; preds = %29, %10
  ret void
}

; Function Attrs: inlinehint nounwind uwtable
define internal void @Fra_ClassObjSetRepr(ptr noundef %0, ptr noundef %1) #4 {
  %3 = alloca ptr, align 8
  %4 = alloca ptr, align 8
  store ptr %0, ptr %3, align 8, !tbaa !47
  store ptr %1, ptr %4, align 8, !tbaa !47
  %5 = load ptr, ptr %4, align 8, !tbaa !47
  %6 = load ptr, ptr %3, align 8, !tbaa !47
  %7 = getelementptr inbounds nuw %struct.Aig_Obj_t_, ptr %6, i32 0, i32 6
  %8 = load ptr, ptr %7, align 8, !tbaa !72
  %9 = getelementptr inbounds nuw %struct.Fra_Man_t_, ptr %8, i32 0, i32 6
  %10 = load ptr, ptr %9, align 8, !tbaa !73
  %11 = getelementptr inbounds nuw %struct.Fra_Cla_t_, ptr %10, i32 0, i32 1
  %12 = load ptr, ptr %11, align 8, !tbaa !16
  %13 = load ptr, ptr %3, align 8, !tbaa !47
  %14 = getelementptr inbounds nuw %struct.Aig_Obj_t_, ptr %13, i32 0, i32 5
  %15 = load i32, ptr %14, align 4, !tbaa !50
  %16 = sext i32 %15 to i64
  %17 = getelementptr inbounds ptr, ptr %12, i64 %16
  store ptr %5, ptr %17, align 8, !tbaa !47
  ret void
}

; Function Attrs: inlinehint nounwind uwtable
define internal ptr @Aig_ManConst1(ptr noundef %0) #4 {
  %2 = alloca ptr, align 8
  store ptr %0, ptr %2, align 8, !tbaa !3
  %3 = load ptr, ptr %2, align 8, !tbaa !3
  %4 = getelementptr inbounds nuw %struct.Aig_Man_t_, ptr %3, i32 0, i32 6
  %5 = load ptr, ptr %4, align 8, !tbaa !80
  ret ptr %5
}

; Function Attrs: inlinehint nounwind uwtable
define internal void @Vec_PtrPush(ptr noundef %0, ptr noundef %1) #4 {
  %3 = alloca ptr, align 8
  %4 = alloca ptr, align 8
  store ptr %0, ptr %3, align 8, !tbaa !36
  store ptr %1, ptr %4, align 8, !tbaa !52
  %5 = load ptr, ptr %3, align 8, !tbaa !36
  %6 = getelementptr inbounds nuw %struct.Vec_Ptr_t_, ptr %5, i32 0, i32 1
  %7 = load i32, ptr %6, align 4, !tbaa !37
  %8 = load ptr, ptr %3, align 8, !tbaa !36
  %9 = getelementptr inbounds nuw %struct.Vec_Ptr_t_, ptr %8, i32 0, i32 0
  %10 = load i32, ptr %9, align 8, !tbaa !39
  %11 = icmp eq i32 %7, %10
  br i1 %11, label %12, label %26

12:                                               ; preds = %2
  %13 = load ptr, ptr %3, align 8, !tbaa !36
  %14 = getelementptr inbounds nuw %struct.Vec_Ptr_t_, ptr %13, i32 0, i32 0
  %15 = load i32, ptr %14, align 8, !tbaa !39
  %16 = icmp slt i32 %15, 16
  br i1 %16, label %17, label %19

17:                                               ; preds = %12
  %18 = load ptr, ptr %3, align 8, !tbaa !36
  call void @Vec_PtrGrow(ptr noundef %18, i32 noundef 16)
  br label %25

19:                                               ; preds = %12
  %20 = load ptr, ptr %3, align 8, !tbaa !36
  %21 = load ptr, ptr %3, align 8, !tbaa !36
  %22 = getelementptr inbounds nuw %struct.Vec_Ptr_t_, ptr %21, i32 0, i32 0
  %23 = load i32, ptr %22, align 8, !tbaa !39
  %24 = mul nsw i32 2, %23
  call void @Vec_PtrGrow(ptr noundef %20, i32 noundef %24)
  br label %25

25:                                               ; preds = %19, %17
  br label %26

26:                                               ; preds = %25, %2
  %27 = load ptr, ptr %4, align 8, !tbaa !52
  %28 = load ptr, ptr %3, align 8, !tbaa !36
  %29 = getelementptr inbounds nuw %struct.Vec_Ptr_t_, ptr %28, i32 0, i32 2
  %30 = load ptr, ptr %29, align 8, !tbaa !40
  %31 = load ptr, ptr %3, align 8, !tbaa !36
  %32 = getelementptr inbounds nuw %struct.Vec_Ptr_t_, ptr %31, i32 0, i32 1
  %33 = load i32, ptr %32, align 4, !tbaa !37
  %34 = add nsw i32 %33, 1
  store i32 %34, ptr %32, align 4, !tbaa !37
  %35 = sext i32 %33 to i64
  %36 = getelementptr inbounds ptr, ptr %30, i64 %35
  store ptr %27, ptr %36, align 8, !tbaa !52
  ret void
}

; Function Attrs: inlinehint nounwind uwtable
define internal ptr @Vec_PtrEntry(ptr noundef %0, i32 noundef %1) #4 {
  %3 = alloca ptr, align 8
  %4 = alloca i32, align 4
  store ptr %0, ptr %3, align 8, !tbaa !36
  store i32 %1, ptr %4, align 4, !tbaa !35
  %5 = load ptr, ptr %3, align 8, !tbaa !36
  %6 = getelementptr inbounds nuw %struct.Vec_Ptr_t_, ptr %5, i32 0, i32 2
  %7 = load ptr, ptr %6, align 8, !tbaa !40
  %8 = load i32, ptr %4, align 4, !tbaa !35
  %9 = sext i32 %8 to i64
  %10 = getelementptr inbounds ptr, ptr %7, i64 %9
  %11 = load ptr, ptr %10, align 8, !tbaa !52
  ret ptr %11
}

; Function Attrs: inlinehint nounwind uwtable
define internal i32 @Vec_PtrSize(ptr noundef %0) #4 {
  %2 = alloca ptr, align 8
  store ptr %0, ptr %2, align 8, !tbaa !36
  %3 = load ptr, ptr %2, align 8, !tbaa !36
  %4 = getelementptr inbounds nuw %struct.Vec_Ptr_t_, ptr %3, i32 0, i32 1
  %5 = load i32, ptr %4, align 4, !tbaa !37
  ret i32 %5
}

; Function Attrs: inlinehint nounwind uwtable
define internal i32 @Aig_ManRegNum(ptr noundef %0) #4 {
  %2 = alloca ptr, align 8
  store ptr %0, ptr %2, align 8, !tbaa !3
  %3 = load ptr, ptr %2, align 8, !tbaa !3
  %4 = getelementptr inbounds nuw %struct.Aig_Man_t_, ptr %3, i32 0, i32 8
  %5 = load i32, ptr %4, align 8, !tbaa !95
  ret i32 %5
}

; Function Attrs: inlinehint nounwind uwtable
define internal i32 @Aig_ManCiNum(ptr noundef %0) #4 {
  %2 = alloca ptr, align 8
  store ptr %0, ptr %2, align 8, !tbaa !3
  %3 = load ptr, ptr %2, align 8, !tbaa !3
  %4 = getelementptr inbounds nuw %struct.Aig_Man_t_, ptr %3, i32 0, i32 14
  %5 = getelementptr inbounds [7 x i32], ptr %4, i64 0, i64 2
  %6 = load i32, ptr %5, align 8, !tbaa !35
  ret i32 %6
}

; Function Attrs: inlinehint nounwind uwtable
define internal void @Vec_PtrClear(ptr noundef %0) #4 {
  %2 = alloca ptr, align 8
  store ptr %0, ptr %2, align 8, !tbaa !36
  %3 = load ptr, ptr %2, align 8, !tbaa !36
  %4 = getelementptr inbounds nuw %struct.Vec_Ptr_t_, ptr %3, i32 0, i32 1
  store i32 0, ptr %4, align 4, !tbaa !37
  ret void
}

; Function Attrs: nounwind uwtable
define void @Fra_ClassesLatchCorr(ptr noundef %0) #0 {
  %2 = alloca ptr, align 8
  %3 = alloca ptr, align 8
  %4 = alloca i32, align 4
  %5 = alloca i32, align 4
  store ptr %0, ptr %2, align 8, !tbaa !90
  call void @llvm.lifetime.start.p0(i64 8, ptr %3) #10
  call void @llvm.lifetime.start.p0(i64 4, ptr %4) #10
  call void @llvm.lifetime.start.p0(i64 4, ptr %5) #10
  store i32 0, ptr %5, align 4, !tbaa !35
  %6 = load ptr, ptr %2, align 8, !tbaa !90
  %7 = getelementptr inbounds nuw %struct.Fra_Man_t_, ptr %6, i32 0, i32 6
  %8 = load ptr, ptr %7, align 8, !tbaa !73
  %9 = getelementptr inbounds nuw %struct.Fra_Cla_t_, ptr %8, i32 0, i32 3
  %10 = load ptr, ptr %9, align 8, !tbaa !18
  call void @Vec_PtrClear(ptr noundef %10)
  %11 = load ptr, ptr %2, align 8, !tbaa !90
  %12 = getelementptr inbounds nuw %struct.Fra_Man_t_, ptr %11, i32 0, i32 1
  %13 = load ptr, ptr %12, align 8, !tbaa !92
  %14 = call i32 @Aig_ManCiNum(ptr noundef %13)
  %15 = load ptr, ptr %2, align 8, !tbaa !90
  %16 = getelementptr inbounds nuw %struct.Fra_Man_t_, ptr %15, i32 0, i32 1
  %17 = load ptr, ptr %16, align 8, !tbaa !92
  %18 = call i32 @Aig_ManRegNum(ptr noundef %17)
  %19 = sub nsw i32 %14, %18
  store i32 %19, ptr %4, align 4, !tbaa !35
  br label %20

20:                                               ; preds = %51, %1
  %21 = load i32, ptr %4, align 4, !tbaa !35
  %22 = load ptr, ptr %2, align 8, !tbaa !90
  %23 = getelementptr inbounds nuw %struct.Fra_Man_t_, ptr %22, i32 0, i32 1
  %24 = load ptr, ptr %23, align 8, !tbaa !92
  %25 = getelementptr inbounds nuw %struct.Aig_Man_t_, ptr %24, i32 0, i32 2
  %26 = load ptr, ptr %25, align 8, !tbaa !93
  %27 = call i32 @Vec_PtrSize(ptr noundef %26)
  %28 = icmp slt i32 %21, %27
  br i1 %28, label %29, label %37

29:                                               ; preds = %20
  %30 = load ptr, ptr %2, align 8, !tbaa !90
  %31 = getelementptr inbounds nuw %struct.Fra_Man_t_, ptr %30, i32 0, i32 1
  %32 = load ptr, ptr %31, align 8, !tbaa !92
  %33 = getelementptr inbounds nuw %struct.Aig_Man_t_, ptr %32, i32 0, i32 2
  %34 = load ptr, ptr %33, align 8, !tbaa !93
  %35 = load i32, ptr %4, align 4, !tbaa !35
  %36 = call ptr @Vec_PtrEntry(ptr noundef %34, i32 noundef %35)
  store ptr %36, ptr %3, align 8, !tbaa !47
  br label %37

37:                                               ; preds = %29, %20
  %38 = phi i1 [ false, %20 ], [ true, %29 ]
  br i1 %38, label %39, label %54

39:                                               ; preds = %37
  %40 = load ptr, ptr %2, align 8, !tbaa !90
  %41 = getelementptr inbounds nuw %struct.Fra_Man_t_, ptr %40, i32 0, i32 6
  %42 = load ptr, ptr %41, align 8, !tbaa !73
  %43 = getelementptr inbounds nuw %struct.Fra_Cla_t_, ptr %42, i32 0, i32 3
  %44 = load ptr, ptr %43, align 8, !tbaa !18
  %45 = load ptr, ptr %3, align 8, !tbaa !47
  call void @Vec_PtrPush(ptr noundef %44, ptr noundef %45)
  %46 = load ptr, ptr %3, align 8, !tbaa !47
  %47 = load ptr, ptr %2, align 8, !tbaa !90
  %48 = getelementptr inbounds nuw %struct.Fra_Man_t_, ptr %47, i32 0, i32 1
  %49 = load ptr, ptr %48, align 8, !tbaa !92
  %50 = call ptr @Aig_ManConst1(ptr noundef %49)
  call void @Fra_ClassObjSetRepr(ptr noundef %46, ptr noundef %50)
  br label %51

51:                                               ; preds = %39
  %52 = load i32, ptr %4, align 4, !tbaa !35
  %53 = add nsw i32 %52, 1
  store i32 %53, ptr %4, align 4, !tbaa !35
  br label %20, !llvm.loop !94

54:                                               ; preds = %37
  %55 = load i32, ptr %5, align 4, !tbaa !35
  %56 = load ptr, ptr %2, align 8, !tbaa !90
  %57 = getelementptr inbounds nuw %struct.Fra_Man_t_, ptr %56, i32 0, i32 6
  %58 = load ptr, ptr %57, align 8, !tbaa !73
  %59 = getelementptr inbounds nuw %struct.Fra_Cla_t_, ptr %58, i32 0, i32 3
  %60 = load ptr, ptr %59, align 8, !tbaa !18
  %61 = call i32 @Vec_PtrSize(ptr noundef %60)
  %62 = add nsw i32 %55, %61
  %63 = mul nsw i32 2, %62
  %64 = sext i32 %63 to i64
  %65 = mul i64 8, %64
  %66 = call noalias ptr @malloc(i64 noundef %65) #11
  %67 = load ptr, ptr %2, align 8, !tbaa !90
  %68 = getelementptr inbounds nuw %struct.Fra_Man_t_, ptr %67, i32 0, i32 6
  %69 = load ptr, ptr %68, align 8, !tbaa !73
  %70 = getelementptr inbounds nuw %struct.Fra_Cla_t_, ptr %69, i32 0, i32 5
  store ptr %66, ptr %70, align 8, !tbaa !41
  %71 = load ptr, ptr %2, align 8, !tbaa !90
  %72 = getelementptr inbounds nuw %struct.Fra_Man_t_, ptr %71, i32 0, i32 6
  %73 = load ptr, ptr %72, align 8, !tbaa !73
  %74 = getelementptr inbounds nuw %struct.Fra_Cla_t_, ptr %73, i32 0, i32 5
  %75 = load ptr, ptr %74, align 8, !tbaa !41
  %76 = load i32, ptr %5, align 4, !tbaa !35
  %77 = mul nsw i32 2, %76
  %78 = sext i32 %77 to i64
  %79 = getelementptr inbounds ptr, ptr %75, i64 %78
  %80 = load ptr, ptr %2, align 8, !tbaa !90
  %81 = getelementptr inbounds nuw %struct.Fra_Man_t_, ptr %80, i32 0, i32 6
  %82 = load ptr, ptr %81, align 8, !tbaa !73
  %83 = getelementptr inbounds nuw %struct.Fra_Cla_t_, ptr %82, i32 0, i32 6
  store ptr %79, ptr %83, align 8, !tbaa !66
  call void @llvm.lifetime.end.p0(i64 4, ptr %5) #10
  call void @llvm.lifetime.end.p0(i64 4, ptr %4) #10
  call void @llvm.lifetime.end.p0(i64 8, ptr %3) #10
  ret void
}