; Function Attrs: nounwind uwtable
define void @Fra_ClassesLatchCorr(ptr noundef readonly captures(none) %0) local_unnamed_addr #6 {
  %2 = getelementptr inbounds nuw i8, ptr %0, i64 48
  %3 = load ptr, ptr %2, align 8, !tbaa !58
  %4 = getelementptr inbounds nuw i8, ptr %3, i64 24
  %5 = load ptr, ptr %4, align 8, !tbaa !29
  %6 = getelementptr inbounds nuw i8, ptr %5, i64 4
  store i32 0, ptr %6, align 4, !tbaa !23
  %7 = getelementptr inbounds nuw i8, ptr %0, i64 8
  %8 = load ptr, ptr %7, align 8, !tbaa !83
  %9 = getelementptr i8, ptr %8, i64 136
  %.val22 = load i32, ptr %9, align 8, !tbaa !81
  %10 = getelementptr i8, ptr %8, i64 104
  %.val23 = load i32, ptr %10, align 8, !tbaa !84
  %11 = sub nsw i32 %.val22, %.val23
  %12 = getelementptr inbounds nuw i8, ptr %8, i64 16
  %13 = load ptr, ptr %12, align 8, !tbaa !85
  %14 = getelementptr i8, ptr %13, i64 4
  %.val1724 = load i32, ptr %14, align 4, !tbaa !23
  %15 = icmp slt i32 %11, %.val1724
  br i1 %15, label %.lr.ph.preheader, label %.critedge

.lr.ph.preheader:                                 ; preds = %1
  %16 = sext i32 %11 to i64
  br label %.lr.ph

.lr.ph:                                           ; preds = %.lr.ph.preheader, %Vec_PtrPush.exit
  %indvars.iv = phi i64 [ %16, %.lr.ph.preheader ], [ %indvars.iv.next, %Vec_PtrPush.exit ]
  %17 = phi ptr [ %13, %.lr.ph.preheader ], [ %64, %Vec_PtrPush.exit ]
  %18 = getelementptr i8, ptr %17, i64 8
  %.val18 = load ptr, ptr %18, align 8, !tbaa !27
  %19 = getelementptr inbounds ptr, ptr %.val18, i64 %indvars.iv
  %20 = load ptr, ptr %19, align 8, !tbaa !41
  %21 = load ptr, ptr %2, align 8, !tbaa !58
  %22 = getelementptr inbounds nuw i8, ptr %21, i64 24
  %23 = load ptr, ptr %22, align 8, !tbaa !29
  %24 = getelementptr inbounds nuw i8, ptr %23, i64 4
  %25 = load i32, ptr %24, align 4, !tbaa !23
  %26 = load i32, ptr %23, align 8, !tbaa !26
  %27 = icmp eq i32 %25, %26
  br i1 %27, label %28, label %.Vec_PtrGrow.exit11_crit_edge.i

.Vec_PtrGrow.exit11_crit_edge.i:                  ; preds = %.lr.ph
  %.phi.trans.insert.i = getelementptr inbounds nuw i8, ptr %23, i64 8
  %.pre.i = load ptr, ptr %.phi.trans.insert.i, align 8, !tbaa !27
  br label %Vec_PtrPush.exit

28:                                               ; preds = %.lr.ph
  %29 = icmp slt i32 %25, 16
  br i1 %29, label %30, label %38

30:                                               ; preds = %28
  %31 = getelementptr inbounds nuw i8, ptr %23, i64 8
  %32 = load ptr, ptr %31, align 8, !tbaa !27
  %.not9.i.i = icmp eq ptr %32, null
  br i1 %.not9.i.i, label %35, label %33

33:                                               ; preds = %30
  %34 = tail call dereferenceable_or_null(128) ptr @realloc(ptr noundef nonnull %32, i64 noundef 128) #19
  br label %Vec_PtrGrow.exit.i

35:                                               ; preds = %30
  %36 = tail call noalias dereferenceable_or_null(128) ptr @malloc(i64 noundef 128) #17
  br label %Vec_PtrGrow.exit.i

Vec_PtrGrow.exit.i:                               ; preds = %35, %33
  %37 = phi ptr [ %34, %33 ], [ %36, %35 ]
  store ptr %37, ptr %31, align 8, !tbaa !27
  store i32 16, ptr %23, align 8, !tbaa !26
  br label %Vec_PtrPush.exit

38:                                               ; preds = %28
  %39 = shl nuw nsw i32 %25, 1
  %40 = getelementptr inbounds nuw i8, ptr %23, i64 8
  %41 = load ptr, ptr %40, align 8, !tbaa !27
  %.not9.i10.i = icmp eq ptr %41, null
  %42 = zext nneg i32 %39 to i64
  %43 = shl nuw nsw i64 %42, 3
  br i1 %.not9.i10.i, label %46, label %44

44:                                               ; preds = %38
  %45 = tail call ptr @realloc(ptr noundef nonnull %41, i64 noundef %43) #19
  br label %48

46:                                               ; preds = %38
  %47 = tail call noalias ptr @malloc(i64 noundef %43) #17
  br label %48

48:                                               ; preds = %46, %44
  %49 = phi ptr [ %45, %44 ], [ %47, %46 ]
  store ptr %49, ptr %40, align 8, !tbaa !27
  store i32 %39, ptr %23, align 8, !tbaa !26
  br label %Vec_PtrPush.exit

Vec_PtrPush.exit:                                 ; preds = %.Vec_PtrGrow.exit11_crit_edge.i, %Vec_PtrGrow.exit.i, %48
  %50 = phi ptr [ %.pre.i, %.Vec_PtrGrow.exit11_crit_edge.i ], [ %49, %48 ], [ %37, %Vec_PtrGrow.exit.i ]
  %51 = load i32, ptr %24, align 4, !tbaa !23
  %52 = add nsw i32 %51, 1
  store i32 %52, ptr %24, align 4, !tbaa !23
  %53 = sext i32 %51 to i64
  %54 = getelementptr inbounds ptr, ptr %50, i64 %53
  store ptr %20, ptr %54, align 8, !tbaa !41
  %55 = load ptr, ptr %7, align 8, !tbaa !83
  %56 = getelementptr i8, ptr %55, i64 48
  %.val19 = load ptr, ptr %56, align 8, !tbaa !56
  %57 = getelementptr i8, ptr %20, i64 36
  %.val20 = load i32, ptr %57, align 4, !tbaa !45
  %58 = getelementptr i8, ptr %20, i64 40
  %.val21 = load ptr, ptr %58, align 8, !tbaa !57
  %59 = getelementptr i8, ptr %.val21, i64 48
  %.val21.val = load ptr, ptr %59, align 8, !tbaa !58
  %60 = getelementptr i8, ptr %.val21.val, i64 8
  %.val21.val.val = load ptr, ptr %60, align 8, !tbaa !25
  %61 = sext i32 %.val20 to i64
  %62 = getelementptr inbounds ptr, ptr %.val21.val.val, i64 %61
  store ptr %.val19, ptr %62, align 8, !tbaa !42
  %indvars.iv.next = add nsw i64 %indvars.iv, 1
  %63 = getelementptr inbounds nuw i8, ptr %55, i64 16
  %64 = load ptr, ptr %63, align 8, !tbaa !85
  %65 = getelementptr i8, ptr %64, i64 4
  %.val17 = load i32, ptr %65, align 4, !tbaa !23
  %66 = sext i32 %.val17 to i64
  %67 = icmp slt i64 %indvars.iv.next, %66
  br i1 %67, label %.lr.ph, label %.critedge.loopexit, !llvm.loop !86

.critedge.loopexit:                               ; preds = %Vec_PtrPush.exit
  %.pre = load ptr, ptr %2, align 8, !tbaa !58
  %.phi.trans.insert = getelementptr inbounds nuw i8, ptr %.pre, i64 24
  %.pre27 = load ptr, ptr %.phi.trans.insert, align 8, !tbaa !29
  %.phi.trans.insert28 = getelementptr i8, ptr %.pre27, i64 4
  %.val.pre = load i32, ptr %.phi.trans.insert28, align 4, !tbaa !23
  %68 = shl nsw i32 %.val.pre, 1
  %69 = sext i32 %68 to i64
  %70 = shl nsw i64 %69, 3
  br label %.critedge

.critedge:                                        ; preds = %.critedge.loopexit, %1
  %.val = phi i64 [ %70, %.critedge.loopexit ], [ 0, %1 ]
  %71 = phi ptr [ %.pre, %.critedge.loopexit ], [ %3, %1 ]
  %72 = tail call noalias ptr @malloc(i64 noundef %.val) #17
  %73 = getelementptr inbounds nuw i8, ptr %71, i64 40
  store ptr %72, ptr %73, align 8, !tbaa !36
  %74 = getelementptr inbounds nuw i8, ptr %71, i64 48
  store ptr %72, ptr %74, align 8, !tbaa !69
  ret void
}